; Function Attrs: mustprogress nofree nounwind willreturn memory(readwrite, inaccessiblemem: write) uwtable
define internal void @_ZL10reverse_3d6PJ_XYZP8PJconsts(ptr dead_on_unwind noalias writable writeonly sret(%struct.PJ_LPZ) align 8 captures(none) initializes((0, 24)) %0, ptr noundef readonly byval(%struct.PJ_XYZ) align 8 captures(none) %1, ptr noundef readonly captures(none) %2) #3 {
  %4 = load double, ptr %1, align 8, !tbaa !58
  %5 = getelementptr inbounds nuw i8, ptr %2, i64 440
  %6 = load double, ptr %5, align 8, !tbaa !57
  %7 = fsub double %4, %6
  store double %7, ptr %0, align 8, !tbaa !55
  %8 = getelementptr inbounds nuw i8, ptr %1, i64 8
  %9 = load double, ptr %8, align 8, !tbaa !61
  %10 = getelementptr inbounds nuw i8, ptr %0, i64 8
  store double %9, ptr %10, align 8, !tbaa !60
  %11 = getelementptr inbounds nuw i8, ptr %1, i64 16
  %12 = load double, ptr %11, align 8, !tbaa !63
  %13 = getelementptr i8, ptr %2, i64 88
  %.val = load ptr, ptr %13, align 8, !tbaa !40
  %14 = getelementptr i8, ptr %2, i64 448
  %.val2 = load double, ptr %14, align 8, !tbaa !49
  %15 = getelementptr inbounds nuw i8, ptr %.val, i64 16
  %16 = load double, ptr %15, align 8, !tbaa !48
  %17 = getelementptr inbounds nuw i8, ptr %.val, i64 8
  %18 = load double, ptr %17, align 8, !tbaa !47
  %19 = getelementptr inbounds nuw i8, ptr %.val, i64 24
  %20 = load double, ptr %19, align 8, !tbaa !53
  %21 = fmul double %18, %20
  %22 = fsub double %9, %.val2
  %23 = tail call double @llvm.fmuladd.f64(double %21, double %22, double %16)
  %24 = load double, ptr %.val, align 8, !tbaa !45
  %25 = getelementptr inbounds nuw i8, ptr %.val, i64 32
  %26 = load double, ptr %25, align 8, !tbaa !54
  %27 = fmul double %24, %26
  %28 = fmul double %7, %27
  %29 = tail call double @cos(double noundef %9) #7, !tbaa !50
  %30 = tail call noundef double @llvm.fmuladd.f64(double %28, double %29, double %23)
  %31 = fsub double %12, %30
  %32 = getelementptr inbounds nuw i8, ptr %0, i64 16
  store double %31, ptr %32, align 8, !tbaa !62
  ret void
}